target datalayout = "e-m:e-p270:32:32-p271:32:32-p272:64:64-i64:64-i128:128-f80:128-n8:16:32:64-S128"
target triple = "x86_64-pc-linux-gnu"

%struct.png_struct_def = type { [1 x %struct.__jmp_buf_tag], ptr, ptr, i64, ptr, ptr, ptr, ptr, ptr, ptr, ptr, ptr, ptr, i8, i8, i32, i32, i32, i32, %struct.z_stream_s, ptr, i32, i32, i32, i32, i32, i32, i32, i32, i32, i32, i32, i32, i32, i32, i32, i32, i32, i32, i32, i32, i32, i64, i32, i32, i32, ptr, ptr, ptr, ptr, i64, i32, i32, ptr, i16, i32, i16, i8, i8, i8, i8, i8, i8, i8, i8, i8, i8, i8, i8, i8, i8, i8, i16, i8, i32, %struct.png_color_16_struct, %struct.png_color_16_struct, ptr, i32, i32, %struct.png_xy, i32, i32, i32, i32, i32, ptr, ptr, ptr, ptr, ptr, ptr, %struct.png_color_8_struct, %struct.png_color_8_struct, ptr, %struct.png_color_16_struct, ptr, ptr, ptr, ptr, ptr, ptr, ptr, ptr, ptr, i32, i32, i64, i64, i64, i64, i32, i32, ptr, ptr, i32, [29 x i8], i32, ptr, ptr, i32, i32, ptr, i8, i8, i16, i16, ptr, i32, i8, ptr, ptr, ptr, ptr, ptr, ptr, ptr, i8, i32, i32, i32, i64, %struct.png_unknown_chunk_t, i64, ptr, i64, i32, i32, ptr, [4 x ptr] }
%struct.__jmp_buf_tag = type { [8 x i64], i32, %struct.__sigset_t }
%struct.__sigset_t = type { [16 x i64] }
%struct.z_stream_s = type { ptr, i32, i64, ptr, i32, i64, ptr, ptr, ptr, ptr, ptr, i32, i64, i64 }
%struct.png_xy = type { i32, i32, i32, i32, i32, i32, i32, i32 }
%struct.png_color_8_struct = type { i8, i8, i8, i8, i8 }
%struct.png_color_16_struct = type { i8, i16, i16, i16, i16 }
%struct.png_unknown_chunk_t = type { [5 x i8], ptr, i64, i8 }
%struct.png_color_struct = type { i8, i8, i8 }

@.str.12 = private unnamed_addr constant [13 x i8] c"out of place\00", align 1
@.str.13 = private unnamed_addr constant [10 x i8] c"duplicate\00", align 1
@.str.29 = private unnamed_addr constant [25 x i8] c"ignored in grayscale PNG\00", align 1
@.str.30 = private unnamed_addr constant [8 x i8] c"invalid\00", align 1

; Function Attrs: nounwind uwtable
define void @png_crc_read(ptr noalias noundef %0, ptr noundef %1, i32 noundef %2) #0 {
  %4 = alloca ptr, align 8
  %5 = alloca ptr, align 8
  %6 = alloca i32, align 4
  store ptr %0, ptr %4, align 8, !tbaa !3
  store ptr %1, ptr %5, align 8, !tbaa !8
  store i32 %2, ptr %6, align 4, !tbaa !11
  %7 = load ptr, ptr %4, align 8, !tbaa !3
  %8 = icmp eq ptr %7, null
  br i1 %8, label %9, label %10

9:                                                ; preds = %3
  br label %19

10:                                               ; preds = %3
  %11 = load ptr, ptr %4, align 8, !tbaa !3
  %12 = load ptr, ptr %5, align 8, !tbaa !8
  %13 = load i32, ptr %6, align 4, !tbaa !11
  %14 = zext i32 %13 to i64
  call void @png_read_data(ptr noundef %11, ptr noundef %12, i64 noundef %14)
  %15 = load ptr, ptr %4, align 8, !tbaa !3
  %16 = load ptr, ptr %5, align 8, !tbaa !8
  %17 = load i32, ptr %6, align 4, !tbaa !11
  %18 = zext i32 %17 to i64
  call void @png_calculate_crc(ptr noundef %15, ptr noundef %16, i64 noundef %18)
  br label %19

19:                                               ; preds = %10, %9
  ret void
}

; Function Attrs: nounwind uwtable
define internal i32 @png_handle_PLTE(ptr noalias noundef %0, ptr noalias noundef %1, i32 noundef %2) #0 {
  %4 = alloca i32, align 4
  %5 = alloca ptr, align 8
  %6 = alloca ptr, align 8
  %7 = alloca i32, align 4
  %8 = alloca ptr, align 8
  %9 = alloca i32, align 4
  %10 = alloca i32, align 4
  %11 = alloca i32, align 4
  %12 = alloca i32, align 4
  %13 = alloca [768 x i8], align 16
  %14 = alloca [256 x %struct.png_color_struct], align 16
  %15 = alloca i32, align 4
  store ptr %0, ptr %5, align 8, !tbaa !3
  store ptr %1, ptr %6, align 8, !tbaa !13
  store i32 %2, ptr %7, align 4, !tbaa !11
  call void @llvm.lifetime.start.p0(i64 8, ptr %8) #7
  store ptr null, ptr %8, align 8, !tbaa !8
  %16 = load ptr, ptr %5, align 8, !tbaa !3
  %17 = getelementptr inbounds nuw %struct.png_struct_def, ptr %16, i32 0, i32 15
  %18 = load i32, ptr %17, align 4, !tbaa !31
  %19 = and i32 %18, 2
  %20 = icmp ne i32 %19, 0
  br i1 %20, label %21, label %22

21:                                               ; preds = %3
  store ptr @.str.13, ptr %8, align 8, !tbaa !8
  br label %154

22:                                               ; preds = %3
  %23 = load ptr, ptr %5, align 8, !tbaa !3
  %24 = getelementptr inbounds nuw %struct.png_struct_def, ptr %23, i32 0, i32 15
  %25 = load i32, ptr %24, align 4, !tbaa !31
  %26 = and i32 %25, 4
  %27 = icmp ne i32 %26, 0
  br i1 %27, label %28, label %29

28:                                               ; preds = %22
  store ptr @.str.12, ptr %8, align 8, !tbaa !8
  br label %153

29:                                               ; preds = %22
  %30 = load ptr, ptr %5, align 8, !tbaa !3
  %31 = getelementptr inbounds nuw %struct.png_struct_def, ptr %30, i32 0, i32 62
  %32 = load i8, ptr %31, align 1, !tbaa !102
  %33 = zext i8 %32 to i32
  %34 = and i32 %33, 2
  %35 = icmp eq i32 %34, 0
  br i1 %35, label %36, label %37

36:                                               ; preds = %29
  store ptr @.str.29, ptr %8, align 8, !tbaa !8
  br label %152

37:                                               ; preds = %29
  %38 = load i32, ptr %7, align 4, !tbaa !11
  %39 = icmp ugt i32 %38, 768
  br i1 %39, label %44, label %40

40:                                               ; preds = %37
  %41 = load i32, ptr %7, align 4, !tbaa !11
  %42 = urem i32 %41, 3
  %43 = icmp ne i32 %42, 0
  br i1 %43, label %44, label %45

44:                                               ; preds = %40, %37
  store ptr @.str.30, ptr %8, align 8, !tbaa !8
  br label %151

45:                                               ; preds = %40
  %46 = load ptr, ptr %5, align 8, !tbaa !3
  %47 = getelementptr inbounds nuw %struct.png_struct_def, ptr %46, i32 0, i32 62
  %48 = load i8, ptr %47, align 1, !tbaa !102
  %49 = zext i8 %48 to i32
  %50 = icmp ne i32 %49, 3
  br i1 %50, label %51, label %64

51:                                               ; preds = %45
  %52 = load ptr, ptr %5, align 8, !tbaa !3
  %53 = getelementptr inbounds nuw %struct.png_struct_def, ptr %52, i32 0, i32 37
  %54 = load i32, ptr %53, align 8, !tbaa !49
  %55 = and i32 %54, 67108864
  %56 = icmp ne i32 %55, 0
  br i1 %56, label %63, label %57

57:                                               ; preds = %51
  %58 = load ptr, ptr %5, align 8, !tbaa !3
  %59 = getelementptr inbounds nuw %struct.png_struct_def, ptr %58, i32 0, i32 37
  %60 = load i32, ptr %59, align 8, !tbaa !49
  %61 = and i32 %60, 32
  %62 = icmp ne i32 %61, 0
  br i1 %62, label %63, label %64

63:                                               ; preds = %57, %51
  store ptr @.str.12, ptr %8, align 8, !tbaa !8
  br label %150

64:                                               ; preds = %57, %45
  call void @llvm.lifetime.start.p0(i64 4, ptr %9) #7
  %65 = load ptr, ptr %5, align 8, !tbaa !3
  %66 = getelementptr inbounds nuw %struct.png_struct_def, ptr %65, i32 0, i32 62
  %67 = load i8, ptr %66, align 1, !tbaa !102
  %68 = zext i8 %67 to i32
  %69 = icmp eq i32 %68, 3
  br i1 %69, label %70, label %76

70:                                               ; preds = %64
  %71 = load ptr, ptr %5, align 8, !tbaa !3
  %72 = getelementptr inbounds nuw %struct.png_struct_def, ptr %71, i32 0, i32 63
  %73 = load i8, ptr %72, align 8, !tbaa !101
  %74 = zext i8 %73 to i32
  %75 = shl i32 1, %74
  br label %77

76:                                               ; preds = %64
  br label %77

77:                                               ; preds = %76, %70
  %78 = phi i32 [ %75, %70 ], [ 256, %76 ]
  store i32 %78, ptr %9, align 4, !tbaa !11
  call void @llvm.lifetime.start.p0(i64 4, ptr %10) #7
  %79 = load i32, ptr %7, align 4, !tbaa !11
  %80 = load i32, ptr %9, align 4, !tbaa !11
  %81 = mul i32 3, %80
  %82 = icmp ugt i32 %79, %81
  br i1 %82, label %83, label %85

83:                                               ; preds = %77
  %84 = load i32, ptr %9, align 4, !tbaa !11
  br label %88

85:                                               ; preds = %77
  %86 = load i32, ptr %7, align 4, !tbaa !11
  %87 = udiv i32 %86, 3
  br label %88

88:                                               ; preds = %85, %83
  %89 = phi i32 [ %84, %83 ], [ %87, %85 ]
  store i32 %89, ptr %10, align 4, !tbaa !11
  call void @llvm.lifetime.start.p0(i64 4, ptr %11) #7
  call void @llvm.lifetime.start.p0(i64 4, ptr %12) #7
  call void @llvm.lifetime.start.p0(i64 768, ptr %13) #7
  call void @llvm.lifetime.start.p0(i64 768, ptr %14) #7
  %90 = load ptr, ptr %5, align 8, !tbaa !3
  %91 = getelementptr inbounds [768 x i8], ptr %13, i64 0, i64 0
  %92 = load i32, ptr %10, align 4, !tbaa !11
  %93 = mul i32 %92, 3
  call void @png_crc_read(ptr noundef %90, ptr noundef %91, i32 noundef %93)
  %94 = load ptr, ptr %5, align 8, !tbaa !3
  %95 = load i32, ptr %7, align 4, !tbaa !11
  %96 = load i32, ptr %10, align 4, !tbaa !11
  %97 = mul i32 3, %96
  %98 = sub i32 %95, %97
  %99 = load ptr, ptr %5, align 8, !tbaa !3
  %100 = getelementptr inbounds nuw %struct.png_struct_def, ptr %99, i32 0, i32 62
  %101 = load i8, ptr %100, align 1, !tbaa !102
  %102 = zext i8 %101 to i32
  %103 = icmp ne i32 %102, 3
  %104 = zext i1 %103 to i32
  %105 = call i32 @png_crc_finish_critical(ptr noundef %94, i32 noundef %98, i32 noundef %104)
  store i32 0, ptr %11, align 4, !tbaa !11
  store i32 0, ptr %12, align 4, !tbaa !11
  br label %106

106:                                              ; preds = %138, %88
  %107 = load i32, ptr %11, align 4, !tbaa !11
  %108 = load i32, ptr %10, align 4, !tbaa !11
  %109 = icmp ult i32 %107, %108
  br i1 %109, label %110, label %141

110:                                              ; preds = %106
  %111 = load i32, ptr %12, align 4, !tbaa !11
  %112 = add i32 %111, 1
  store i32 %112, ptr %12, align 4, !tbaa !11
  %113 = zext i32 %111 to i64
  %114 = getelementptr inbounds nuw [768 x i8], ptr %13, i64 0, i64 %113
  %115 = load i8, ptr %114, align 1, !tbaa !10
  %116 = load i32, ptr %11, align 4, !tbaa !11
  %117 = zext i32 %116 to i64
  %118 = getelementptr inbounds nuw [256 x %struct.png_color_struct], ptr %14, i64 0, i64 %117
  %119 = getelementptr inbounds nuw %struct.png_color_struct, ptr %118, i32 0, i32 0
  store i8 %115, ptr %119, align 1, !tbaa !115
  %120 = load i32, ptr %12, align 4, !tbaa !11
  %121 = add i32 %120, 1
  store i32 %121, ptr %12, align 4, !tbaa !11
  %122 = zext i32 %120 to i64
  %123 = getelementptr inbounds nuw [768 x i8], ptr %13, i64 0, i64 %122
  %124 = load i8, ptr %123, align 1, !tbaa !10
  %125 = load i32, ptr %11, align 4, !tbaa !11
  %126 = zext i32 %125 to i64
  %127 = getelementptr inbounds nuw [256 x %struct.png_color_struct], ptr %14, i64 0, i64 %126
  %128 = getelementptr inbounds nuw %struct.png_color_struct, ptr %127, i32 0, i32 1
  store i8 %124, ptr %128, align 1, !tbaa !117
  %129 = load i32, ptr %12, align 4, !tbaa !11
  %130 = add i32 %129, 1
  store i32 %130, ptr %12, align 4, !tbaa !11
  %131 = zext i32 %129 to i64
  %132 = getelementptr inbounds nuw [768 x i8], ptr %13, i64 0, i64 %131
  %133 = load i8, ptr %132, align 1, !tbaa !10
  %134 = load i32, ptr %11, align 4, !tbaa !11
  %135 = zext i32 %134 to i64
  %136 = getelementptr inbounds nuw [256 x %struct.png_color_struct], ptr %14, i64 0, i64 %135
  %137 = getelementptr inbounds nuw %struct.png_color_struct, ptr %136, i32 0, i32 2
  store i8 %133, ptr %137, align 1, !tbaa !118
  br label %138

138:                                              ; preds = %110
  %139 = load i32, ptr %11, align 4, !tbaa !11
  %140 = add i32 %139, 1
  store i32 %140, ptr %11, align 4, !tbaa !11
  br label %106, !llvm.loop !119

141:                                              ; preds = %106
  %142 = load ptr, ptr %5, align 8, !tbaa !3
  %143 = getelementptr inbounds nuw %struct.png_struct_def, ptr %142, i32 0, i32 15
  %144 = load i32, ptr %143, align 4, !tbaa !31
  %145 = or i32 %144, 2
  store i32 %145, ptr %143, align 4, !tbaa !31
  %146 = load ptr, ptr %5, align 8, !tbaa !3
  %147 = load ptr, ptr %6, align 8, !tbaa !13
  %148 = getelementptr inbounds [256 x %struct.png_color_struct], ptr %14, i64 0, i64 0
  %149 = load i32, ptr %10, align 4, !tbaa !11
  call void @png_set_PLTE(ptr noundef %146, ptr noundef %147, ptr noundef %148, i32 noundef %149)
  store i32 3, ptr %4, align 4
  store i32 1, ptr %15, align 4
  call void @llvm.lifetime.end.p0(i64 768, ptr %14) #7
  call void @llvm.lifetime.end.p0(i64 768, ptr %13) #7
  call void @llvm.lifetime.end.p0(i64 4, ptr %12) #7
  call void @llvm.lifetime.end.p0(i64 4, ptr %11) #7
  call void @llvm.lifetime.end.p0(i64 4, ptr %10) #7
  call void @llvm.lifetime.end.p0(i64 4, ptr %9) #7
  br label %176

150:                                              ; preds = %63
  br label %151

151:                                              ; preds = %150, %44
  br label %152

152:                                              ; preds = %151, %36
  br label %153

153:                                              ; preds = %152, %28
  br label %154

154:                                              ; preds = %153, %21
  %155 = load ptr, ptr %5, align 8, !tbaa !3
  %156 = getelementptr inbounds nuw %struct.png_struct_def, ptr %155, i32 0, i32 62
  %157 = load i8, ptr %156, align 1, !tbaa !102
  %158 = zext i8 %157 to i32
  %159 = icmp eq i32 %158, 3
  br i1 %159, label %160, label %166

160:                                              ; preds = %154
  %161 = load ptr, ptr %5, align 8, !tbaa !3
  %162 = load i32, ptr %7, align 4, !tbaa !11
  %163 = call i32 @png_crc_finish(ptr noundef %161, i32 noundef %162)
  %164 = load ptr, ptr %5, align 8, !tbaa !3
  %165 = load ptr, ptr %8, align 8, !tbaa !8
  call void @png_chunk_error(ptr noundef %164, ptr noundef %165) #8
  unreachable

166:                                              ; preds = %154
  %167 = load ptr, ptr %5, align 8, !tbaa !3
  %168 = load i32, ptr %7, align 4, !tbaa !11
  %169 = call i32 @png_crc_finish_critical(ptr noundef %167, i32 noundef %168, i32 noundef 1)
  %170 = load ptr, ptr %5, align 8, !tbaa !3
  %171 = load ptr, ptr %8, align 8, !tbaa !8
  call void @png_chunk_benign_error(ptr noundef %170, ptr noundef %171)
  br label %172

172:                                              ; preds = %166
  %173 = load ptr, ptr %8, align 8, !tbaa !8
  %174 = icmp ne ptr %173, null
  %175 = select i1 %174, i32 0, i32 0
  store i32 %175, ptr %4, align 4
  store i32 1, ptr %15, align 4
  br label %176

176:                                              ; preds = %172, %141
  call void @llvm.lifetime.end.p0(i64 8, ptr %8) #7
  %177 = load i32, ptr %4, align 4
  ret i32 %177
}