; Function Attrs: nounwind uwtable
define internal range(i32 0, 4) i32 @png_handle_PLTE(ptr noalias noundef %0, ptr noalias noundef %1, i32 noundef %2) #0 {
  %4 = alloca [768 x i8], align 16
  %5 = alloca [256 x %struct.png_color_struct], align 16
  %6 = getelementptr inbounds nuw i8, ptr %0, i64 300
  %7 = load i32, ptr %6, align 4, !tbaa !24
  %8 = and i32 %7, 2
  %.not = icmp eq i32 %8, 0
  br i1 %.not, label %9, label %58

9:                                                ; preds = %3
  %10 = and i32 %7, 4
  %.not48 = icmp eq i32 %10, 0
  br i1 %.not48, label %11, label %58

11:                                               ; preds = %9
  %12 = getelementptr inbounds nuw i8, ptr %0, i64 623
  %13 = load i8, ptr %12, align 1, !tbaa !124
  %14 = and i8 %13, 2
  %15 = icmp eq i8 %14, 0
  br i1 %15, label %58, label %16

16:                                               ; preds = %11
  %17 = icmp ult i32 %2, 769
  %18 = urem i32 %2, 3
  %.not49 = icmp eq i32 %18, 0
  %or.cond = and i1 %17, %.not49
  br i1 %or.cond, label %19, label %58

19:                                               ; preds = %16
  %.not50 = icmp eq i8 %13, 3
  br i1 %.not50, label %24, label %20

20:                                               ; preds = %19
  %21 = getelementptr inbounds nuw i8, ptr %0, i64 504
  %22 = load i32, ptr %21, align 8, !tbaa !51
  %23 = and i32 %22, 67108896
  %or.cond53 = icmp eq i32 %23, 0
  br i1 %or.cond53, label %png_crc_read.exit, label %58

24:                                               ; preds = %19
  %25 = getelementptr inbounds nuw i8, ptr %0, i64 624
  %26 = load i8, ptr %25, align 8, !tbaa !123
  %27 = zext nneg i8 %26 to i32
  %28 = shl nuw i32 1, %27
  br label %png_crc_read.exit

png_crc_read.exit:                                ; preds = %20, %24
  %29 = phi i32 [ %28, %24 ], [ 256, %20 ]
  %30 = mul i32 %29, 3
  %31 = icmp ugt i32 %2, %30
  %.lhs.trunc = trunc nuw i32 %2 to i16
  %32 = udiv i16 %.lhs.trunc, 3
  %.zext = zext nneg i16 %32 to i32
  %33 = select i1 %31, i32 %29, i32 %.zext
  call void @llvm.lifetime.start.p0(i64 768, ptr nonnull %4) #12
  call void @llvm.lifetime.start.p0(i64 768, ptr nonnull %5) #12
  %34 = mul i32 %33, 3
  %35 = zext i32 %34 to i64
  call void @png_read_data(ptr noundef nonnull %0, ptr noundef nonnull %4, i64 noundef %35) #12
  call void @png_calculate_crc(ptr noundef nonnull %0, ptr noundef nonnull %4, i64 noundef %35) #12
  %36 = sub i32 %2, %34
  %37 = load i8, ptr %12, align 1, !tbaa !124
  %38 = icmp ne i8 %37, 3
  %39 = zext i1 %38 to i32
  %40 = call fastcc i32 @png_crc_finish_critical(ptr noundef nonnull %0, i32 noundef %36, i32 noundef %39)
  %.not56 = icmp eq i32 %33, 0
  br i1 %.not56, label %._crit_edge, label %.lr.ph.preheader

.lr.ph.preheader:                                 ; preds = %png_crc_read.exit
  %wide.trip.count = zext i32 %33 to i64
  br label %.lr.ph

.lr.ph:                                           ; preds = %.lr.ph.preheader, %.lr.ph
  %indvars.iv = phi i64 [ 0, %.lr.ph.preheader ], [ %indvars.iv.next, %.lr.ph ]
  %.055 = phi i32 [ 0, %.lr.ph.preheader ], [ %51, %.lr.ph ]
  %41 = add i32 %.055, 1
  %42 = zext i32 %.055 to i64
  %43 = getelementptr inbounds nuw [768 x i8], ptr %4, i64 0, i64 %42
  %44 = load i8, ptr %43, align 1, !tbaa !3
  %45 = getelementptr inbounds nuw [256 x %struct.png_color_struct], ptr %5, i64 0, i64 %indvars.iv
  store i8 %44, ptr %45, align 1, !tbaa !142
  %46 = add i32 %.055, 2
  %47 = zext i32 %41 to i64
  %48 = getelementptr inbounds nuw [768 x i8], ptr %4, i64 0, i64 %47
  %49 = load i8, ptr %48, align 1, !tbaa !3
  %50 = getelementptr inbounds nuw i8, ptr %45, i64 1
  store i8 %49, ptr %50, align 1, !tbaa !144
  %51 = add i32 %.055, 3
  %52 = zext i32 %46 to i64
  %53 = getelementptr inbounds nuw [768 x i8], ptr %4, i64 0, i64 %52
  %54 = load i8, ptr %53, align 1, !tbaa !3
  %55 = getelementptr inbounds nuw i8, ptr %45, i64 2
  store i8 %54, ptr %55, align 1, !tbaa !145
  %indvars.iv.next = add nuw nsw i64 %indvars.iv, 1
  %exitcond.not = icmp eq i64 %indvars.iv.next, %wide.trip.count
  br i1 %exitcond.not, label %._crit_edge, label %.lr.ph, !llvm.loop !146

._crit_edge:                                      ; preds = %.lr.ph, %png_crc_read.exit
  %56 = load i32, ptr %6, align 4, !tbaa !24
  %57 = or i32 %56, 2
  store i32 %57, ptr %6, align 4, !tbaa !24
  call void @png_set_PLTE(ptr noundef nonnull %0, ptr noundef %1, ptr noundef nonnull %5, i32 noundef %33) #12
  call void @llvm.lifetime.end.p0(i64 768, ptr nonnull %5) #12
  call void @llvm.lifetime.end.p0(i64 768, ptr nonnull %4) #12
  br label %66

58:                                               ; preds = %20, %16, %11, %9, %3
  %.045 = phi ptr [ @.str.13, %3 ], [ @.str.12, %9 ], [ @.str.29, %11 ], [ @.str.30, %16 ], [ @.str.12, %20 ]
  %59 = getelementptr inbounds nuw i8, ptr %0, i64 623
  %60 = load i8, ptr %59, align 1, !tbaa !124
  %61 = icmp eq i8 %60, 3
  br i1 %61, label %62, label %64

62:                                               ; preds = %58
  %63 = tail call i32 @png_crc_finish(ptr noundef nonnull %0, i32 noundef %2)
  tail call void @png_chunk_error(ptr noundef nonnull %0, ptr noundef nonnull %.045) #11
  unreachable

64:                                               ; preds = %58
  %65 = tail call fastcc i32 @png_crc_finish_critical(ptr noundef nonnull %0, i32 noundef %2, i32 noundef 1)
  tail call void @png_chunk_benign_error(ptr noundef nonnull %0, ptr noundef nonnull %.045) #12
  br label %66

66:                                               ; preds = %64, %._crit_edge
  %.044 = phi i32 [ 0, %64 ], [ 3, %._crit_edge ]
  ret i32 %.044
}